; Function Attrs: mustprogress uwtable
define { ptr, i64 } @_ZN7rocksdb11EncodeU64TsEmPNSt7__cxx1112basic_stringIcSt11char_traitsIcESaIcEEE(i64 noundef %0, ptr noundef nonnull %1) local_unnamed_addr #1 {
  %3 = alloca [8 x i8], align 8
  call void @llvm.lifetime.start.p0(i64 8, ptr nonnull %3) #27
  store i64 %0, ptr %3, align 8
  %4 = getelementptr inbounds nuw i8, ptr %1, i64 8
  %5 = load i64, ptr %4, align 8, !tbaa !39
  %6 = call noundef nonnull align 8 dereferenceable(32) ptr @_ZNSt7__cxx1112basic_stringIcSt11char_traitsIcESaIcEE10_M_replaceEmmPKcm(ptr noundef nonnull align 8 dereferenceable(32) %1, i64 noundef 0, i64 noundef %5, ptr noundef nonnull %3, i64 noundef 8)
  %7 = load ptr, ptr %1, align 8, !tbaa !42
  %8 = load i64, ptr %4, align 8, !tbaa !39
  call void @llvm.lifetime.end.p0(i64 8, ptr nonnull %3) #27
  %.fca.0.insert = insertvalue { ptr, i64 } poison, ptr %7, 0
  %.fca.1.insert = insertvalue { ptr, i64 } %.fca.0.insert, i64 %8, 1
  ret { ptr, i64 } %.fca.1.insert
}